target datalayout = "e-m:e-p270:32:32-p271:32:32-p272:64:64-i64:64-i128:128-f80:128-n8:16:32:64-S128"
target triple = "x86_64-pc-linux-gnu"

@hf_r3_mortisepins_s1 = internal global i32 0, align 4
@hf_r3_mortisepins_s2 = internal global i32 0, align 4
@hf_r3_mortisepins_s3 = internal global i32 0, align 4
@hf_r3_mortisepins_s4 = internal global i32 0, align 4
@ett_r3iopins = internal global i32 0, align 4
@.str.1860 = private unnamed_addr constant [29 x i8] c"%s:%u: failed assertion \22%s\22\00", align 1
@.str.1861 = private unnamed_addr constant [33 x i8] c"epan/dissectors/packet-assa_r3.c\00", align 1
@.str.1862 = private unnamed_addr constant [18 x i8] c"start_offset == 0\00", align 1
@.str.2126 = private unnamed_addr constant [28 x i8] c"Mortise Pin States (0x%02x)\00", align 1

; Function Attrs: null_pointer_is_valid sspstrong uwtable
define internal void @dissect_r3_upstreammfgfield_mortisepins(ptr noundef %0, i32 noundef %1, i32 noundef %2, ptr noundef %3, ptr noundef %4) #0 {
  %6 = alloca ptr, align 8
  %7 = alloca i32, align 4
  %8 = alloca i32, align 4
  %9 = alloca ptr, align 8
  %10 = alloca ptr, align 8
  %11 = alloca ptr, align 8
  %12 = alloca i32, align 4
  store ptr %0, ptr %6, align 8
  store i32 %1, ptr %7, align 4
  store i32 %2, ptr %8, align 4
  store ptr %3, ptr %9, align 8
  store ptr %4, ptr %10, align 8
  call void @llvm.lifetime.start.p0(i64 8, ptr %11) #5
  %13 = load ptr, ptr %10, align 8
  %14 = icmp ne ptr %13, null
  br i1 %14, label %16, label %15

15:                                               ; preds = %5
  store i32 1, ptr %12, align 4
  br label %46

16:                                               ; preds = %5
  %17 = load i32, ptr %7, align 4
  %18 = icmp eq i32 %17, 0
  br i1 %18, label %19, label %20

19:                                               ; preds = %16
  br label %22

20:                                               ; preds = %16
  call void (ptr, ...) @proto_report_dissector_bug(ptr noundef @.str.1860, ptr noundef @.str.1861, i32 noundef 4974, ptr noundef @.str.1862) #6
  unreachable

21:                                               ; No predecessors!
  br label %22

22:                                               ; preds = %21, %19
  %23 = load ptr, ptr %10, align 8
  %24 = load ptr, ptr %6, align 8
  %25 = load i32, ptr @ett_r3iopins, align 4
  %26 = load ptr, ptr %6, align 8
  %27 = call zeroext i8 @tvb_get_uint8(ptr noundef %26, i32 noundef 0)
  %28 = zext i8 %27 to i32
  %29 = call ptr (ptr, ptr, i32, i32, i32, ptr, ptr, ...) @proto_tree_add_subtree_format(ptr noundef %23, ptr noundef %24, i32 noundef 0, i32 noundef 1, i32 noundef %25, ptr noundef null, ptr noundef @.str.2126, i32 noundef %28)
  store ptr %29, ptr %11, align 8
  %30 = load ptr, ptr %11, align 8
  %31 = load i32, ptr @hf_r3_mortisepins_s1, align 4
  %32 = load ptr, ptr %6, align 8
  %33 = call ptr @proto_tree_add_item(ptr noundef %30, i32 noundef %31, ptr noundef %32, i32 noundef 0, i32 noundef 1, i32 noundef -2147483648)
  %34 = load ptr, ptr %11, align 8
  %35 = load i32, ptr @hf_r3_mortisepins_s2, align 4
  %36 = load ptr, ptr %6, align 8
  %37 = call ptr @proto_tree_add_item(ptr noundef %34, i32 noundef %35, ptr noundef %36, i32 noundef 0, i32 noundef 1, i32 noundef -2147483648)
  %38 = load ptr, ptr %11, align 8
  %39 = load i32, ptr @hf_r3_mortisepins_s3, align 4
  %40 = load ptr, ptr %6, align 8
  %41 = call ptr @proto_tree_add_item(ptr noundef %38, i32 noundef %39, ptr noundef %40, i32 noundef 0, i32 noundef 1, i32 noundef -2147483648)
  %42 = load ptr, ptr %11, align 8
  %43 = load i32, ptr @hf_r3_mortisepins_s4, align 4
  %44 = load ptr, ptr %6, align 8
  %45 = call ptr @proto_tree_add_item(ptr noundef %42, i32 noundef %43, ptr noundef %44, i32 noundef 0, i32 noundef 1, i32 noundef -2147483648)
  store i32 0, ptr %12, align 4
  br label %46

46:                                               ; preds = %22, %15
  call void @llvm.lifetime.end.p0(i64 8, ptr %11) #5
  %47 = load i32, ptr %12, align 4
  switch i32 %47, label %49 [
    i32 0, label %48
    i32 1, label %48
  ]

48:                                               ; preds = %46, %46
  ret void

49:                                               ; preds = %46
  unreachable
}