; Function Attrs: null_pointer_is_valid sspstrong uwtable
define internal void @dissect_r3_upstreammfgfield_mortisepins(ptr noundef %0, i32 noundef %1, i32 %2, ptr readnone captures(none) %3, ptr noundef %4) #0 {
  %.not = icmp eq ptr %4, null
  br i1 %.not, label %22, label %6

6:                                                ; preds = %5
  %7 = icmp eq i32 %1, 0
  br i1 %7, label %9, label %8

8:                                                ; preds = %6
  tail call void (ptr, ...) @proto_report_dissector_bug(ptr noundef nonnull @.str.1860, ptr noundef nonnull @.str.1861, i32 noundef 4974, ptr noundef nonnull @.str.1862) #6
  unreachable

9:                                                ; preds = %6
  %10 = load i32, ptr @ett_r3iopins, align 4
  %11 = tail call zeroext i8 @tvb_get_uint8(ptr noundef %0, i32 noundef 0)
  %12 = zext i8 %11 to i32
  %13 = tail call ptr (ptr, ptr, i32, i32, i32, ptr, ptr, ...) @proto_tree_add_subtree_format(ptr noundef nonnull %4, ptr noundef %0, i32 noundef 0, i32 noundef 1, i32 noundef %10, ptr noundef null, ptr noundef nonnull @.str.2126, i32 noundef %12)
  %14 = load i32, ptr @hf_r3_mortisepins_s1, align 4
  %15 = tail call ptr @proto_tree_add_item(ptr noundef %13, i32 noundef %14, ptr noundef %0, i32 noundef 0, i32 noundef 1, i32 noundef -2147483648)
  %16 = load i32, ptr @hf_r3_mortisepins_s2, align 4
  %17 = tail call ptr @proto_tree_add_item(ptr noundef %13, i32 noundef %16, ptr noundef %0, i32 noundef 0, i32 noundef 1, i32 noundef -2147483648)
  %18 = load i32, ptr @hf_r3_mortisepins_s3, align 4
  %19 = tail call ptr @proto_tree_add_item(ptr noundef %13, i32 noundef %18, ptr noundef %0, i32 noundef 0, i32 noundef 1, i32 noundef -2147483648)
  %20 = load i32, ptr @hf_r3_mortisepins_s4, align 4
  %21 = tail call ptr @proto_tree_add_item(ptr noundef %13, i32 noundef %20, ptr noundef %0, i32 noundef 0, i32 noundef 1, i32 noundef -2147483648)
  br label %22

22:                                               ; preds = %5, %9
  ret void
}